(dp0
S'Epsilon Systems Solutions, Inc.'
p1
(lp2
(g1
S'https://www.linkedin.com/jobs/view/209736325'
p3
VEpsilon Systems Solutions, Inc. Mission Solutions Group is currently seeking a full time Data Analyst II in Newport, RI.Summary: Analyzes user's requirements, concept of operations documents and high level system architectures to develop operational requirements and documentationDuties And Responsibilities Analyzes system requirements and supports design and development activities   Frequently interacts with customers and functional peer groups.   Develops technical documentation   Develops operational curriculum based on system Architecture and system design documentation   Communicates with other program personnel, government overseers and senior executives   Contributes to the technical direction for the development, engineering, interfacing, integration and testing of all components of complex hardware/software systems to include network analysis, functional allocation, systems requirements reviews, interface standards and system architectures   Contributes to the design and execution of unit, system and operational test and evaluation.  Required Qualifications Bachelor's Degree in an Engineering discipline or Industrial design   4-7 years of professional experience   Recent C4I networks or other relevant network experience in the design, integration, analysis, troubleshooting, documenting, programming and operation of computer equipment and networks   Pursuant to the various government contractual requirements, all applicants must be U.S. Citizens   Must be able to obtain and hold a secret security clearance  Knowledge Knowledge of DoD System Architecture and system design documentation  Skills Strong interpersonal skills, telephone etiquette, and professional demeanor   Excellent oral and written communication skills   Effective team player with highly proficient customer service skills   Advanced level user in Microsoft Office application (Word, Excel, and PowerPoint, Visio)  Abilities Ability to handle prolonged sitting and use of computers (typing, keyboarding).   Interaction normally requires the ability to gain cooperation of others, oversee production, and maintain work schedules   Flexible and able to work in a dynamic, team oriented environment  Preferred Qualifications Current Secret or Top Secret Security Clearance   Experience with submarine combat systems   DoD 8570-M IA Workforce Certification \u2013 IAT Level 2 with certifications in Microsoft operating systems, Cisco Routers and/or VMWare   Experience in supporting security authorization activities in compliance government directives  ADA Notations Frequent standing, sitting, walking, handling, feeling with hands, reaching with arms   Regular communication (hearing/speaking)  Epsilon Systems Solutions, Inc. Mission Solutions Group and its subsidiaries are proud Equal Employment Opportunity and Affirmative Action employers, Minority/Female/Disabled/Veterans.
p4
tp5
a(S'Epsilon Systems Solutions, Inc.'
p6
S'https://www.linkedin.com/jobs/view/215478745'
p7
VEpsilon Systems Solutions, Inc. Mission Solutions Group is currently seeking a full time Data Analyst III in Newport, RI.Summary: Analyzes user's requirements, concept of operations documents and high level system architectures to develop operational requirements and documentationDuties And Responsibilities Analyzes complex system requirements and supports design and development activities   Interacts with customers and functional peer groups.   Develops technical documentation   Develops operational curriculum based on system Architecture and system design documentation of a highly complex nature   Communicates extensively with other program personnel, government overseers and senior executives   Contributes highly to the technical direction for the development, engineering, interfacing, integration and testing of all components of complex hardware/software systems to include network analysis, functional allocation, systems requirements reviews, interface standards and system architectures   Contributes highly to the design and execution of unit, system and operational test and evaluation.  Required Qualifications Bachelor's Degree in an Engineering discipline or Industrial design   4-7 years of professional experience   Recent C4I networks or other relevant network experience in the design, integration, analysis, troubleshooting, documenting, programming and operation of computer equipment and networks   Pursuant to the various government contractual requirements, all applicants must be U.S. Citizens   Must be able to obtain and hold a secret security clearance  Knowledge Knowledge of DoD System Architecture and system design documentation  Skills Strong interpersonal skills, telephone etiquette, and professional demeanor   Excellent oral and written communication skills   Effective team player with highly proficient customer service skills   Advanced level user in Microsoft Office application (Word, Excel, and PowerPoint, Visio)  Abilities Ability to handle prolonged sitting and use of computers (typing, keyboarding).   Interaction normally requires the ability to gain cooperation of others, oversee production, and maintain work schedules   Flexible and able to work in a dynamic, team oriented environment  Preferred Qualifications Current Secret or Top Secret Security Clearance   Experience with submarine combat systems   DoD 8570-M IA Workforce Certification \u2013 IAT Level 2 with certifications in Microsoft operating systems, Cisco Routers and/or VMWare   Experience in supporting security authorization activities in compliance government directives  ADA Notations Frequent standing, sitting, walking, handling, feeling with hands, reaching with arms   Regular communication (hearing/speaking)  Epsilon Systems Solutions, Inc. Mission Solutions Group and its subsidiaries are proud Equal Employment Opportunity and Affirmative Action employers, Minority/Female/Disabled/Veterans.
p8
tp9
asS'FMR LLC dba Fidelity Investments'
p10
(lp11
(g10
S'https://www.linkedin.com/jobs/view/307192336'
p12
S'Duties: Gathers and documents data and meta-data requirements to create conceptual, logical, and physical data models using Power Designer. Develops design documentation, data strategies, procedures, and Data Definition Language (DDL). Leverages technologies and tools to perform data analysis, including WebFOCUS, Oracle Designer, PowerDesigner, Erwin, IBM mainframe, SQL, DB2, DBMS, Netezza, Exadata, Informatica, and Agile methodologies.Primary Responsibilities: and#149;Gathers requirements from business and technical staff.and#149;Analyzes and translates data requirements in order to recommend appropriate solutions.and#149;Presents solutions to project teams, data engineering team, and architecture review boards.and#149;Integrates data into existing enterprise logical model and physical data stores to avoid data redundancy.and#149;Ensures technical database decisions result in coherent system designs.and#149;Uses modeling tool to capture clear definitions of data elements and produces code to implement database changes.and#149;Implements data solutions to satisfy business requirements.and#149;Writes and maintains business rules, logic, and SQL queries.'
p13
tp14
asS'SE USA'
p15
(lp16
(g15
S'https://www.linkedin.com/jobs/view/310029804'
p17
S"Join Schneider Electric and power your career!Discover the opportunity to join an international, dynamic, and responsible company that fosters the development of all its people around the world. Every day, we empower employees to achieve more and experience exciting careers. Find out how our values and unique position make Schneider Electric the employer of choice. The Data Science Analytics Intern will work on computing and marketing analytics projects. The projects involving application development of new business intelligence tools, dashboards and algorithms. Key applications to be developed include machine learning algorithms for improved sales and marketing operations and ROI. Primary Location: !! Candidate or graduate of a Bachelor of Science program in computer science, information science, or information technology. Strong background in statistics and computer modeling preferred. Proficiency in database tools such as Oracle, SQL, and visualization tools such as Tableau or equivalent preferred. Care. Connect. Challenge. Commit.Our values define our company. Who we are, our customer approach, how we do business, what its like to work here, and the kind of people we want to attract and retain. We care for our planet, our customers, our company, our team, and ourselves. We connect to customers and colleagues, we are open and respectful. We challenge others and embrace challenges ourselves. We commit to change by leading the change. At Schneider Electric, because we value our employees, we offer a competitive benefits package that includes medical, dental and vision, matching 401(k), training and development opportunities and much more. Join Schneider Electric and together, lets make the most of your energy. Schneider Electric is an Equal Opportunity Employer Minorities/Women/Veterans/Disabled.Schedule: !! Candidate or graduate of a Bachelor of Science program in computer science, information science, or information technology. Strong background in statistics and computer modeling preferred. Proficiency in database tools such as Oracle, SQL, and visualization tools such as Tableau or equivalent preferred. Care. Connect. Challenge. Commit.Our values define our company. Who we are, our customer approach, how we do business, what its like to work here, and the kind of people we want to attract and retain. We care for our planet, our customers, our company, our team, and ourselves. We connect to customers and colleagues, we are open and respectful. We challenge others and embrace challenges ourselves. We commit to change by leading the change. At Schneider Electric, because we value our employees, we offer a competitive benefits package that includes medical, dental and vision, matching 401(k), training and development opportunities and much more. Join Schneider Electric and together, lets make the most of your energy. Schneider Electric is an Equal Opportunity Employer Minorities/Women/Veterans/Disabled.Schneider Electric is an Equal Opportunity Employer.Employer's Job# 00330XWest KingstonRIPlease visit job URL for more information about this opening and to view EOE statement."
p18
tp19
asS'Conexess Group'
p20
(lp21
(g20
S'https://www.linkedin.com/jobs/view/299819853'
p22
S'DescriptionTitle: Sr. Data Analyst (Trade Spend Analytics)Terms:  Full-TimeConexess Group is a staffing company that specializes in finding the right talent for our clients and connecting people with new opportunities. Conexess is working with a large consumer goods organization to fill the position of Sr. Data Analyst (Trade Spend Analytics). This organization has built a successful portfolio of trusted brands that can be found in every household. Role DescriptionAs a Sr. Data Analyst (Trade Spend Analytics), you will be a Business Leader within the organization. Your job will be to communicate complex data into simple conclusions that will empower others to drive action based on the insights you derive. This person must be passionate about data analytics, be able to derive actionable insights from the data, and translate those insights into business improving action. You will essentially transform the business to enable better decision-making through the use of advanced analytics. You will be the primary evangelist to the business for the power of predictive analysis and develop business cases to illustrate the change in decision-making that occurs when you begin to anticipate what will happen, versus just reflecting on what has occurred.ResponsibilitiesOptimize pricing and promotion plans leveraging multiple data sources and analytical models Perform financial/marketing/promotion analytics and communicate findings and recommendations back to key stakeholders Understand when, how, and where to directly use, adjust, estimate Price &amp; Promotion data to fit the business case being studied Leverage data visualization and analytic tools to grasp the business building insights in our mountains of dataPerks of the JobVery competitive salary, plus sign on bonus Full service relocation assistance and relocation package offered (if needed) Excellent benefits Leadership and growth opportunities within the organizationQualificationsMust be legally authorized to work in the US without employer sponsorship Minimum of 5 years of data analytics experience surrounding Trade Spend, Promotion and/or Pricing Previous experience leveraging data analytics technologies and tools to solve ad hoc business problems and innovate on potential future solutions Previous experience in CPG/FMCG company or retail sales preferred Experience with data visualization tools, such as KNIME, RapidMiner, , Spotfire, Tableau etc. Experience with analytic tools, such as R, Python, C++, Java, Scala, etc. Understanding of statistical models Strong written and verbal communication skills'
p23
tp24
asS'Newport County Community Mental Health Center'
p25
(lp26
(g25
S'https://www.linkedin.com/jobs/view/300894974'
p27
S"Duties IncludeThe Quality Improvement Data Analyst is responsible for analysis and reporting of performance, safety, clinical and compliance data and information intended to determine opportunities to improve outcomes and clinical processes.Compilation of reports, dashboards and new EHR tables and screensOn-site support for management inquires, research, analytic advice and trainingMonitor, track, prepare and report client demographic data, encounter data, outcome data and other reportable information to oversight authoritiesAssist the QI Administrator in the preparation, update and distribution of Center policy and procedure and in preparations for JCAHO survey readiness, MHRH licensing visits and Medicaid site visitsParticipate in utilization reviews and health information completeness auditsMaintain risk management and client complaint tracking systemsQualificationsRelated Associate Degree and a minimum of 2 years technical experience utilizing Microsoft Office Suite products, especially Microsoft Access DBMS. Similar experience utilizing SQL/Crystal reporting processes is essential. Familiarity with Echo EHR functions and/or state of Rhode Island BEHOLD reporting highly desired. Must satisfactorily pass all required background checks and possess a valid driver's license.We have been serving the mental health communities in Jamestown, Little Compton, Portsmouth, Middletown, Newport and Tiverton for over 40 years. Our staff provides comprehensive, professional behavioral health services to individuals, to families and to the community that incorporate the principles and values of recovery orientation."
p28
tp29
as.