(dp0
S'West Virginia University Research Corporation'
p1
(lp2
(g1
S'https://www.linkedin.com/jobs/view/306990464'
p3
S'Pharmaceutical Scientist (BPS 17-0029)The West Virginia University Research Corporation (WVURC) seeks to hire a Pharmaceutical Scientist for the Department of Pharmaceutical Sciences at West Virginia University. The purpose of this position is to assist the Principal Investigator on research projects related to molecular cell biology and nanotechnology.A PhD in biomedical sciences or biomedical engineering, and 2 - 4 years of research laboratory experience with exposure to laboratory procedures, likely including instrumentation, tissue culture and animal handling are required. An equivalent combination of education and experience will be considered. Experience in molecular biology and nanotechnology and an evidence of research productivity, including a strong publication record is preferred.Competitive salary and benefits offered. For a complete job description and to apply for this position, please visit http://hr.research.wvu.edu and click on the iView Jobsi link. AA/EOE/Minorities/Females/Vet/Disability/E-verify compliant employer'
p4
tp5
asS'Forfeiture Support Associates, LLC'
p6
(lp7
(g6
S'https://www.linkedin.com/jobs/view/290953369'
p8
S"FSA, a rapidly growing professional services company delivering highly qualified personnel in support of the government's mission, has an immediate vacancy for a Data Analyst / Legal Clerk supporting the United States Attorney's Office (USAO) in an administrative role.In this position, a Data Anlyst will work directly and indirectly with the employees in the Administrative Division, Civil Division, and Criminal Division, helping with tasks ranging from reception duties to preparing legal documents.The position requires a proactive individual with the ability to problem solve, respond to deadlines, adhere to specific directions, organize reports and documents, and work in a team environment to achieve common goals.In this position, a Data Analyst performs, but is not limited to the following duties:Provide organization and management of data filesReview data for completeness of information and/or proper executionExtract data from data basesObtain additional information from other agencies/organizations data basesEstablish/maintain physical filesPrepare notices/advertisementsReceive petitions, claims, and process sharing requestsReconcile inconsistenciesPrepare declarationsGather information and organize investigative packages, case files or presentationsVerify information and files against tracking systemMaintain internal status information on the disposition of designated information, files, and assetsAssure information is accurate and perform analytical computations necessary to process dataConduct and reconcile inventories which includes moving and lifting computer and office equipmentDistribute and receive documentsAssist analyst or officials in obtaining/collecting all documents/information to complete filesProvide administrative information and assistance concerning case or file to other agencies or organizationsExtract data from data bases for management and program reportsPerform word processing tasksPerform data entryPrepare legal documentsProvide project assistanceA Data Analyst must meet the following qualifications:High School diploma, bachelor's Degree preferredLegal experience is a plus, but not a requirementAbility to review and analyze data and information from multiple sourcesAbility to establish case/project filesAbility to enter and retrieve data from data basesAbility to prepare and format management reportsAbility to manipulate, transfer, and compute and print informationAbility to create and manipulate spreadsheetsAbility to prepare and correct reports and correspondence using word processing softwareThis position requires U.S. Citizenship and a 7 (or 10) year minimum background investigation.One year position to terminate September 30, 2017We are proud to be an Affirmative Action/Equal Opportunity Employer - We recruit, employ, train, compensate, and promote without regard to race, color, religion, national origin, sex, age, disability, veteran status, genetics, or any other basis protected by applicable federal, state or local law.We maintain a drug-free workplace and perform pre-employment and random substance abuse testing.Visit us on the Web at: www.forfeituresupport.com"
p9
tp10
a(S'Forfeiture Support Associates, LLC'
p11
S'https://www.linkedin.com/jobs/view/290953369'
p12
S"FSA, a rapidly growing professional services company delivering highly qualified personnel in support of the government's mission, has an immediate vacancy for a Data Analyst / Legal Clerk supporting the United States Attorney's Office (USAO) in an administrative role.In this position, a Data Anlyst will work directly and indirectly with the employees in the Administrative Division, Civil Division, and Criminal Division, helping with tasks ranging from reception duties to preparing legal documents.The position requires a proactive individual with the ability to problem solve, respond to deadlines, adhere to specific directions, organize reports and documents, and work in a team environment to achieve common goals.In this position, a Data Analyst performs, but is not limited to the following duties:Provide organization and management of data filesReview data for completeness of information and/or proper executionExtract data from data basesObtain additional information from other agencies/organizations data basesEstablish/maintain physical filesPrepare notices/advertisementsReceive petitions, claims, and process sharing requestsReconcile inconsistenciesPrepare declarationsGather information and organize investigative packages, case files or presentationsVerify information and files against tracking systemMaintain internal status information on the disposition of designated information, files, and assetsAssure information is accurate and perform analytical computations necessary to process dataConduct and reconcile inventories which includes moving and lifting computer and office equipmentDistribute and receive documentsAssist analyst or officials in obtaining/collecting all documents/information to complete filesProvide administrative information and assistance concerning case or file to other agencies or organizationsExtract data from data bases for management and program reportsPerform word processing tasksPerform data entryPrepare legal documentsProvide project assistanceA Data Analyst must meet the following qualifications:High School diploma, bachelor's Degree preferredLegal experience is a plus, but not a requirementAbility to review and analyze data and information from multiple sourcesAbility to establish case/project filesAbility to enter and retrieve data from data basesAbility to prepare and format management reportsAbility to manipulate, transfer, and compute and print informationAbility to create and manipulate spreadsheetsAbility to prepare and correct reports and correspondence using word processing softwareThis position requires U.S. Citizenship and a 7 (or 10) year minimum background investigation.One year position to terminate September 30, 2017We are proud to be an Affirmative Action/Equal Opportunity Employer - We recruit, employ, train, compensate, and promote without regard to race, color, religion, national origin, sex, age, disability, veteran status, genetics, or any other basis protected by applicable federal, state or local law.We maintain a drug-free workplace and perform pre-employment and random substance abuse testing.Visit us on the Web at: www.forfeituresupport.com"
p13
tp14
asS'Prosync Technology Group'
p15
(lp16
(g15
S'https://www.linkedin.com/jobs/view/228240107'
p17
VAbout ProSync Technology Group, LLCProSync Technology Group is a leader in providing innovating technology-based solutions and offers an impressive array of support services to our Government and Commercial clients. We utilize software systems integration technology combined with expertise in various technical disciplines and outstanding client support to deliver comprehensive, practical solutions to the Department of Defense, the Intelligence Community, their Prime Contractors, and Commercial Customers.CANDIDATE MUST POSSESS AN ACTIVE TS/ISSA CLEARANCETitle of Position: Data Scientist, Expert (McLean)Description Of Position Sponsor is looking for a data scientist that has experience in internet bulk data mining. The candidate will help develop novel analytical approaches for parsing bulk internet data sets, develop data mining algorithms and models for finding hidden patterns, unknown correlations, trends and other relationships within the data. The ideal candidate codes every day and enjoys solving big data challenges with mission impact.  Education And Experience Required Demonstrated on-the-job experience in data mining structured and unstructured bulk data sets.   Demonstrated on-the-job experience in two or more of the following programming languages: R, Python, SQL, ECL, Java, MatLab, JavaScript.   Demonstrated on-the-job experience in big data and big data ecosystems, such as Hadoop, MapReduce, Spark, Hive, Pig, NoSQL, and/or Pentaho.   Demonstrated on-the-job experience in working with big data algorithms, data structures, performance optimization, time series analysis, and pattern recognition.   Demonstrated on-the-job experience in data mining skills: data aggregation, validation, reconciliation, and modeling techniques.   Demonstrated on-the-job experience data mining internet data such as web server logs, clickstream data, social media content, protocols, ports, flags, social network activity, browser data, cookie data, XML documents and schema, and time and sensor data from the Internet of Things (IoT).  Desired Skills Demonstrated on-the-job experience discovering and solving problems relating to big data analytics   Demonstrated on-the-job experience or strong foundation in statistics.   Master\u2019s or Bachelor\u2019s degree in computer science, networking, or a related technology field, such as statistics, mathematics, etc.   Demonstrated on-the-job experience or familiar with network protocols, netflow, data tagging and structuring.  Clearance Requirement TS/ISSA ProSync's executive team creates and expands business opportunities, recruits talented and intelligent technology professionals, and fosters a company culture that empowers ProSync professionals to shape and mold the direction of their careers and the direction of ProSync.Employees of ProSync Technology Group, LLC and applicants for employment shall be afforded equal opportunity in all aspects of employment without regard to race, color, religion, political affiliation, national origin, disability, sex, age, or marital status.Email Staffing@prosync.com for more specifics regarding the position.
p18
tp19
as.