(lp0
S'316679359'
p1
aS'305218938'
p2
aS'314872408'
p3
aS'315207381'
p4
aS'315189959'
p5
aS'237868428'
p6
aS'305726040'
p7
aS'305719435'
p8
aS'270900428'
p9
aS'314401447'
p10
aS'301072146'
p11
aS'308663192'
p12
a.