(lp0
S'223027354'
p1
aS'297838455'
p2
aS'216080702'
p3
aS'313374589'
p4
aS'302469041'
p5
aS'302668007'
p6
aS'305823745'
p7
aS'267071650'
p8
aS'315228018'
p9
aS'289552353'
p10
aS'289619462'
p11
aS'263608102'
p12
aS'315228029'
p13
aS'216077835'
p14
a.